ccopy_reg
_reconstructor
p0
(cfeedparser
FeedParserDict
p1
c__builtin__
dict
p2
(dp3
S'feed'
p4
g0
(g1
g2
(dp5
S'updated'
p6
V2012-12-12T12:59:30-06:00
p7
sS'rdf_seq'
p8
V
p9
sS'subtitle'
p10
VA blog covering security and security technology.
p11
sS'updated_parsed'
p12
ctime
struct_time
p13
((I2012
I12
I12
I18
I59
I30
I2
I347
I0
tp14
(dp15
tp16
Rp17
sS'links'
p18
(lp19
g0
(g1
g2
(dp20
S'href'
p21
Vhttp://www.schneier.com/blog/
p22
sS'type'
p23
Vtext/html
p24
sS'rel'
p25
Valternate
p26
stp27
Rp28
ag0
(g1
g2
(dp29
S'href'
p30
Vhttp://feeds.feedburner.com/schneier/fulltext
p31
sS'type'
p32
Vapplication/rdf+xml
p33
sS'rel'
p34
Vself
p35
stp36
Rp37
ag0
(g1
g2
(dp38
S'href'
p39
Vhttp://pubsubhubbub.appspot.com/
p40
sg23
g24
sS'rel'
p41
Vhub
p42
stp43
Rp44
asS'authors'
p45
(lp46
g0
(g1
g2
(dp47
tp48
Rp49
asS'generator_detail'
p50
g0
(g1
g2
(dp51
g21
Vhttp://www.movabletype.org/?v=4.38
p52
stp53
Rp54
sS'feedburner_info'
p55
(dp56
S'uri'
p57
Vschneier/fulltext
p58
ssS'link'
p59
g22
sS'entries'
p60
g9
sS'rights_detail'
p61
g0
(g1
g2
(dp62
S'base'
p63
Vhttp://feeds.feedburner.com/schneier/fulltext
p64
sg23
Vtext/plain
p65
sS'language'
p66
NsS'value'
p67
VCopyright 2012 Bruce Schneier
p68
stp69
Rp70
sS'generator'
p71
Vhttp://www.movabletype.org/?v=4.38
p72
sS'rights'
p73
g68
sS'title'
p74
VSchneier on Security
p75
sS'rdf_li'
p76
(dp77
S'rdf:resource'
p78
Vhttp://www.schneier.com/blog/archives/2012/12/buy_your_own_at.html
p79
ssS'subtitle_detail'
p80
g0
(g1
g2
(dp81
g63
Vhttp://feeds.feedburner.com/schneier/fulltext
p82
sg23
Vtext/html
p83
sg66
Nsg67
g11
stp84
Rp85
sS'title_detail'
p86
g0
(g1
g2
(dp87
g63
Vhttp://feeds.feedburner.com/schneier/fulltext
p88
sg23
Vtext/plain
p89
sg66
Nsg67
g75
stp90
Rp91
sS'author'
p92
g9
stp93
Rp94
sS'status'
p95
I200
sg6
S'Wed, 12 Dec 2012 23:34:50 GMT'
p96
sg12
g13
((I2012
I12
I12
I23
I34
I50
I2
I347
I0
tp97
(dp98
tp99
Rp100
sS'encoding'
p101
VUTF-8
p102
sS'bozo'
p103
I0
sS'headers'
p104
(dp105
S'x-xss-protection'
p106
S'1; mode=block'
p107
sS'x-content-type-options'
p108
S'nosniff'
p109
sS'expires'
p110
S'Thu, 13 Dec 2012 00:06:47 GMT'
p111
sS'server'
p112
S'GSE'
p113
sS'last-modified'
p114
g96
sS'connection'
p115
S'close'
p116
sS'etag'
p117
S'kvvxLVFs+hWdLB8kx+15iENkmCs'
p118
sS'cache-control'
p119
S'private, max-age=0'
p120
sS'date'
p121
S'Thu, 13 Dec 2012 00:06:47 GMT'
p122
sS'content-type'
p123
S'text/xml; charset=UTF-8'
p124
ssS'etag'
p125
VkvvxLVFs+hWdLB8kx+15iENkmCs
p126
sg21
Vhttp://feeds.feedburner.com/schneier/fulltext
p127
sS'version'
p128
Vrss10
p129
sg60
(lp130
g0
(g1
g2
(dp131
S'summary_detail'
p132
g0
(g1
g2
(dp133
g63
Vhttp://feeds.feedburner.com/schneier/fulltext
p134
sg23
g83
sg66
Nsg67
V<p>Interesting development in <a href="http://www.bbc.co.uk/news/science-environment-20629671">forensic analysis</a>:</p>\u000a\u000a<blockquote>Comparing the unique pattern of the frequencies on an audio recording with a database that has been logging these changes for 24 hours a day, 365 days a year provides a digital watermark: a date and time stamp on the recording.\u000a\u000a<p>Philip Harrison, from JP French Associates, another forensic audio laboratory that has been logging the hum for several years, says: "Even if [the hum] is picked up at a very low level that you cannot hear, we can extract this information."</p>\u000a\u000a<p>[...]</p>\u000a\u000a<p>It is a technique known as Electric Network Frequency (ENF) analysis, and it is helping forensic scientists to separate genuine, unedited recordings from those that have been tampered with.</p>\u000a\u000a<p>Dr Harrison said: "We can extract [the hum] and compare it with the database - if it is a continuous recording, it will all match up nicely.</p>\u000a\u000a<p>"If we've got some breaks in the recording, if it's been stopped and started, the profiles won't match or there will be a section missing. Or if it has come from two different recordings looking as if it is one, we'll have two different profiles within that one recording."</blockquote></p>
p135
stp136
Rp137
sg12
g13
((I2012
I12
I12
I18
I59
I30
I2
I347
I0
tp138
(dp139
tp140
Rp141
sg18
(lp142
g0
(g1
g2
(dp143
g21
Vhttp://www.schneier.com/blog/archives/2012/12/detecting_edite.html
p144
sg23
g24
sg25
g26
stp145
Rp146
asg92
Vschneier
p147
sg74
VDetecting Edited Audio
p148
sg6
V2012-12-12T12:59:30-06:00
p149
sS'summary'
p150
V<p>Interesting development in <a href="http://www.bbc.co.uk/news/science-environment-20629671">forensic analysis</a>:</p>\u000a\u000a<blockquote>Comparing the unique pattern of the frequencies on an audio recording with a database that has been logging these changes for 24 hours a day, 365 days a year provides a digital watermark: a date and time stamp on the recording.\u000a\u000a<p>Philip Harrison, from JP French Associates, another forensic audio laboratory that has been logging the hum for several years, says: "Even if [the hum] is picked up at a very low level that you cannot hear, we can extract this information."</p>\u000a\u000a<p>[...]</p>\u000a\u000a<p>It is a technique known as Electric Network Frequency (ENF) analysis, and it is helping forensic scientists to separate genuine, unedited recordings from those that have been tampered with.</p>\u000a\u000a<p>Dr Harrison said: "We can extract [the hum] and compare it with the database - if it is a continuous recording, it will all match up nicely.</p>\u000a\u000a<p>"If we've got some breaks in the recording, if it's been stopped and started, the profiles won't match or there will be a section missing. Or if it has come from two different recordings looking as if it is one, we'll have two different profiles within that one recording."</blockquote></p>
p151
sS'title_detail'
p152
g0
(g1
g2
(dp153
g63
Vhttp://feeds.feedburner.com/schneier/fulltext
p154
sg23
g89
sg66
Nsg67
g148
stp155
Rp156
sg59
g144
sg45
(lp157
g0
(g1
g2
(dp158
tp159
Rp160
asS'author_detail'
p161
g0
(g1
g2
(dp162
S'name'
p163
g147
stp164
Rp165
sS'id'
p166
Vhttp://www.schneier.com/blog/archives/2012/12/detecting_edite.html
p167
sS'tags'
p168
(lp169
stp170
Rp171
ag0
(g1
g2
(dp172
S'summary_detail'
p173
g0
(g1
g2
(dp174
g63
Vhttp://feeds.feedburner.com/schneier/fulltext
p175
sg23
g83
sg66
Nsg67
V<p>The EFF has been prying data out of the government and <a href="https://www.eff.org/deeplinks/2012/12/newly-released-drone-records-reveal-extensive-military-flights-us">analyzing it</a>.</p>
p176
stp177
Rp178
sg12
g13
((I2012
I12
I12
I12
I6
I26
I2
I347
I0
tp179
(dp180
tp181
Rp182
sg18
(lp183
g0
(g1
g2
(dp184
g21
Vhttp://www.schneier.com/blog/archives/2012/12/drone_flights_o.html
p185
sg23
g24
sg25
g26
stp186
Rp187
asg92
Vschneier
p188
sg74
VDrone Flights Over the US
p189
sg6
V2012-12-12T06:06:26-06:00
p190
sg150
g176
sS'title_detail'
p191
g0
(g1
g2
(dp192
g63
Vhttp://feeds.feedburner.com/schneier/fulltext
p193
sg23
g89
sg66
Nsg67
g189
stp194
Rp195
sg59
g185
sg45
(lp196
g0
(g1
g2
(dp197
tp198
Rp199
asS'author_detail'
p200
g0
(g1
g2
(dp201
g163
g188
stp202
Rp203
sg166
Vhttp://www.schneier.com/blog/archives/2012/12/drone_flights_o.html
p204
sg168
(lp205
stp206
Rp207
ag0
(g1
g2
(dp208
S'summary_detail'
p209
g0
(g1
g2
(dp210
g63
Vhttp://feeds.feedburner.com/schneier/fulltext
p211
sg23
g83
sg66
Nsg67
V<p><a href="http://www.ccdcoe.org/369.html">This book</a> is available as a free pdf download:</p>\u000a\u000a<blockquote>The National Cyber Security Framework Manual provides detailed background information and in-depth theoretical frameworks to help the reader understand the various facets of National Cyber Security, according to different levels of public policy formulation. The four levels of government -- political, strategic, operational and tactical/technical -- each have their own perspectives on National Cyber Security, and each is addressed in individual sections within the Manual. Additionally, the Manual gives examples of relevant institutions in National Cyber Security, from top-level policy coordination bodies down to cyber crisis management structures and similar institutions.</blockquote>\u000a\u000a<p>It's by the NATO Cooperative Cyber Defense Center of Excellence in Tallinn.  A paper copy will be published in January.</p>
p212
stp213
Rp214
sg12
g13
((I2012
I12
I11
I19
I3
I22
I1
I346
I0
tp215
(dp216
tp217
Rp218
sg18
(lp219
g0
(g1
g2
(dp220
g21
Vhttp://www.schneier.com/blog/archives/2012/12/the_national_cy.html
p221
sg23
g24
sg25
g26
stp222
Rp223
asg92
Vschneier
p224
sg74
V<i>The National Cyber Security Framework Manual</i>
p225
sg6
V2012-12-11T13:03:22-06:00
p226
sg150
V<p><a href="http://www.ccdcoe.org/369.html">This book</a> is available as a free pdf download:</p>\u000a\u000a<blockquote>The National Cyber Security Framework Manual provides detailed background information and in-depth theoretical frameworks to help the reader understand the various facets of National Cyber Security, according to different levels of public policy formulation. The four levels of government -- political, strategic, operational and tactical/technical -- each have their own perspectives on National Cyber Security, and each is addressed in individual sections within the Manual. Additionally, the Manual gives examples of relevant institutions in National Cyber Security, from top-level policy coordination bodies down to cyber crisis management structures and similar institutions.</blockquote>\u000a\u000a<p>It's by the NATO Cooperative Cyber Defense Center of Excellence in Tallinn.  A paper copy will be published in January.</p>
p227
sS'title_detail'
p228
g0
(g1
g2
(dp229
g63
Vhttp://feeds.feedburner.com/schneier/fulltext
p230
sg23
Vtext/html
p231
sg66
Nsg67
g225
stp232
Rp233
sg59
g221
sg45
(lp234
g0
(g1
g2
(dp235
tp236
Rp237
asS'author_detail'
p238
g0
(g1
g2
(dp239
g163
g224
stp240
Rp241
sg166
Vhttp://www.schneier.com/blog/archives/2012/12/the_national_cy.html
p242
sg168
(lp243
stp244
Rp245
ag0
(g1
g2
(dp246
S'summary_detail'
p247
g0
(g1
g2
(dp248
g63
Vhttp://feeds.feedburner.com/schneier/fulltext
p249
sg23
g83
sg66
Nsg67
V<p>Excellent article: "<a href="http://www.vice.com/en_uk/read/how-to-shut-down-internets-warren-ellis">How to Shut Down Internets</a>."</p>\u000a\u000a<p>First, he describes what just happened in Syria.  Then:</p>\u000a\u000a<blockquote>Egypt turned off the internet by using the Border Gateway Protocol trick, and also by switching off DNS. This has a similar effect to throwing bleach over a map. The location of every street and house in the country is blotted out. All the Egyptian ISPs were, and probably still are, government licensees. It took nothing but a short series of phone calls to effect the shutdown.\u000a\u000a<p>There are two reasons why these shutdowns happen in this manner. The first is that these governments wish to black out activities like, say, indiscriminate slaughter. That much is obvious. The second is sometimes not so obvious. These governments intend to turn the internet back on. Deep down, they believe they will be in their seats the next month and have the power to turn it back on. They believe they will win. It is the arrogance of power: they take their future for granted, and need only hide from the world the corpses it will be built on.</blockquote></p>\u000a\u000a<p>Cory Doctorow <a href="http://boingboing.net/2012/12/09/why-dictators-dont-shut-do.html">asks</a>: "Why would a basket-case dictator even allow his citizenry to access the Internet in the first place?" and "Why not shut down the Internet the instant trouble breaks out?"  The reason is that the Internet is a valuable tool for social control.  Dictators can use the Internet for surveillance and propaganda as well as censorship, and they only resort to extreme censorship when the value of that outweighs the value of <a href="http://www.schneier.com/blog/archives/2012/11/hacking_by_the.html">doing all three</a> in some sort of totalitarian balance.</p>\u000a\u000a<p>Related: an <a href="http://www.forbes.com/sites/andygreenberg/2012/12/03/these-are-the-61-countries-most-susceptible-to-an-internet-shutdown/">article</a> on the countries most vulnerable to an Internet shutdown, based on their connectivity architecture.</p>
p250
stp251
Rp252
sg12
g13
((I2012
I12
I11
I12
I8
I25
I1
I346
I0
tp253
(dp254
tp255
Rp256
sg18
(lp257
g0
(g1
g2
(dp258
g21
Vhttp://www.schneier.com/blog/archives/2012/12/dictators_shutt.html
p259
sg23
g24
sg25
g26
stp260
Rp261
asg92
Vschneier
p262
sg74
VDictators Shutting Down the Internet
p263
sg6
V2012-12-11T06:08:25-06:00
p264
sg150
V<p>Excellent article: "<a href="http://www.vice.com/en_uk/read/how-to-shut-down-internets-warren-ellis">How to Shut Down Internets</a>."</p>\u000a\u000a<p>First, he describes what just happened in Syria.  Then:</p>\u000a\u000a<blockquote>Egypt turned off the internet by using the Border Gateway Protocol trick, and also by switching off DNS. This has a similar effect to throwing bleach over a map. The location of every street and house in the country is blotted out. All the Egyptian ISPs were, and probably still are, government licensees. It took nothing but a short series of phone calls to effect the shutdown.\u000a\u000a<p>There are two reasons why these shutdowns happen in this manner. The first is that these governments wish to black out activities like, say, indiscriminate slaughter. That much is obvious. The second is sometimes not so obvious. These governments intend to turn the internet back on. Deep down, they believe they will be in their seats the next month and have the power to turn it back on. They believe they will win. It is the arrogance of power: they take their future for granted, and need only hide from the world the corpses it will be built on.</blockquote></p>\u000a\u000a<p>Cory Doctorow <a href="http://boingboing.net/2012/12/09/why-dictators-dont-shut-do.html">asks</a>: "Why would a basket-case dictator even allow his citizenry to access the Internet in the first place?" and "Why not shut down the Internet the instant trouble breaks out?"  The reason is that the Internet is a valuable tool for social control.  Dictators can use the Internet for surveillance and propaganda as well as censorship, and they only resort to extreme censorship when the value of that outweighs the value of <a href="http://www.schneier.com/blog/archives/2012/11/hacking_by_the.html">doing all three</a> in some sort of totalitarian balance.</p>\u000a\u000a<p>Related: an <a href="http://www.forbes.com/sites/andygreenberg/2012/12/03/these-are-the-61-countries-most-susceptible-to-an-internet-shutdown/">article</a> on the countries most vulnerable to an Internet shutdown, based on their connectivity architecture.</p>
p265
sS'title_detail'
p266
g0
(g1
g2
(dp267
g63
Vhttp://feeds.feedburner.com/schneier/fulltext
p268
sg23
g89
sg66
Nsg67
g263
stp269
Rp270
sg59
g259
sg45
(lp271
g0
(g1
g2
(dp272
tp273
Rp274
asS'author_detail'
p275
g0
(g1
g2
(dp276
g163
g262
stp277
Rp278
sg166
Vhttp://www.schneier.com/blog/archives/2012/12/dictators_shutt.html
p279
sg168
(lp280
stp281
Rp282
ag0
(g1
g2
(dp283
S'summary_detail'
p284
g0
(g1
g2
(dp285
g63
Vhttp://feeds.feedburner.com/schneier/fulltext
p286
sg23
g83
sg66
Nsg67
V<p>Yet another way two-factor authentication has been <a href="http://www.techspot.com/news/51037-trojan-bypasses-two-factor-authentication-steals-465-million.html">bypassed</a>:</p>\u000a\u000a<blockquote>For a user to fall prey to Eurograbber, he or she must first be using a computer infected with the trojan. This was typically done by luring the user onto a malicious web page via a round of unfortunate web surfing or email phishing attempts. Once infected, the trojan would monitor that computer's web browser for banking sessions. When a user visited a banking site, Eurograbber would inject JavaScript and HTML markup into their browser, prompting the user for their phone number under the guise of a "banking software security upgrade". This is also the key to Eurograbber's ability to bypass two-factor authentication.</blockquote>\u000a\u000a<p>It's amazing that I wrote about this <a href="http://www.schneier.com/blog/archives/2005/03/the_failure_of.html">almost eight years ago</a>.  <a href="http://www.schneier.com/blog/archives/2012/02/the_failure_of_2.html">Here's</a> another example of the same sort of failure.</p>
p287
stp288
Rp289
sg12
g13
((I2012
I12
I10
I19
I4
I5
I0
I345
I0
tp290
(dp291
tp292
Rp293
sg18
(lp294
g0
(g1
g2
(dp295
g21
Vhttp://www.schneier.com/blog/archives/2012/12/bypassing_two-f.html
p296
sg23
g24
sg25
g26
stp297
Rp298
asg92
Vschneier
p299
sg74
VBypassing Two-Factor Authentication
p300
sg6
V2012-12-10T13:04:05-06:00
p301
sg150
V<p>Yet another way two-factor authentication has been <a href="http://www.techspot.com/news/51037-trojan-bypasses-two-factor-authentication-steals-465-million.html">bypassed</a>:</p>\u000a\u000a<blockquote>For a user to fall prey to Eurograbber, he or she must first be using a computer infected with the trojan. This was typically done by luring the user onto a malicious web page via a round of unfortunate web surfing or email phishing attempts. Once infected, the trojan would monitor that computer's web browser for banking sessions. When a user visited a banking site, Eurograbber would inject JavaScript and HTML markup into their browser, prompting the user for their phone number under the guise of a "banking software security upgrade". This is also the key to Eurograbber's ability to bypass two-factor authentication.</blockquote>\u000a\u000a<p>It's amazing that I wrote about this <a href="http://www.schneier.com/blog/archives/2005/03/the_failure_of.html">almost eight years ago</a>.  <a href="http://www.schneier.com/blog/archives/2012/02/the_failure_of_2.html">Here's</a> another example of the same sort of failure.</p>
p302
sS'title_detail'
p303
g0
(g1
g2
(dp304
g63
Vhttp://feeds.feedburner.com/schneier/fulltext
p305
sg23
g89
sg66
Nsg67
g300
stp306
Rp307
sg59
g296
sg45
(lp308
g0
(g1
g2
(dp309
tp310
Rp311
asS'author_detail'
p312
g0
(g1
g2
(dp313
g163
g299
stp314
Rp315
sg166
Vhttp://www.schneier.com/blog/archives/2012/12/bypassing_two-f.html
p316
sg168
(lp317
stp318
Rp319
ag0
(g1
g2
(dp320
S'summary_detail'
p321
g0
(g1
g2
(dp322
g63
Vhttp://feeds.feedburner.com/schneier/fulltext
p323
sg23
g83
sg66
Nsg67
V<p>I have no idea if <a href="http://www.toboc.com/atmskimmer88/atmskimmer-lead.aspx">this</a> is real.  If I had to guess, I would say no.</p>
p324
stp325
Rp326
sg12
g13
((I2012
I12
I10
I11
I56
I12
I0
I345
I0
tp327
(dp328
tp329
Rp330
sg18
(lp331
g0
(g1
g2
(dp332
g21
Vhttp://www.schneier.com/blog/archives/2012/12/buy_your_own_at.html
p333
sg23
g24
sg25
g26
stp334
Rp335
asg92
Vschneier
p336
sg74
VBuy Your Own ATM Skimmer for $3000
p337
sg6
V2012-12-10T05:56:12-06:00
p338
sg150
g324
sS'title_detail'
p339
g0
(g1
g2
(dp340
g63
Vhttp://feeds.feedburner.com/schneier/fulltext
p341
sg23
g89
sg66
Nsg67
g337
stp342
Rp343
sg59
g333
sg45
(lp344
g0
(g1
g2
(dp345
tp346
Rp347
asS'author_detail'
p348
g0
(g1
g2
(dp349
g163
g336
stp350
Rp351
sg166
Vhttp://www.schneier.com/blog/archives/2012/12/buy_your_own_at.html
p352
sg168
(lp353
stp354
Rp355
asS'namespaces'
p356
(dp357
S''
p358
Vhttp://www.w3.org/2005/Atom
p359
sS'sy'
p360
Vhttp://purl.org/rss/1.0/modules/syndication/
p361
sS'admin'
p362
Vhttp://webns.net/mvcb/
p363
sS'dc'
p364
Vhttp://purl.org/dc/elements/1.1/
p365
sS'cc'
p366
Vhttp://web.resource.org/cc/
p367
sS'rdf'
p368
Vhttp://www.w3.org/1999/02/22-rdf-syntax-ns#
p369
sS'feedburner'
p370
Vhttp://rssnamespace.org/feedburner/ext/1.0
p371
sstp372
Rp373
.